; Function Attrs: nounwind uwtable
define ptr @Cudd_bddVarMap(ptr noundef %0, ptr noundef %1) #0 {
  %3 = getelementptr inbounds nuw i8, ptr %0, i64 352
  %4 = load ptr, ptr %3, align 8, !tbaa !42
  %5 = icmp eq ptr %4, null
  br i1 %5, label %.loopexit, label %.preheader

.preheader:                                       ; preds = %2
  %6 = getelementptr inbounds nuw i8, ptr %0, i64 448
  br label %7

7:                                                ; preds = %.preheader, %7
  store i32 0, ptr %6, align 8, !tbaa !26
  %8 = tail call fastcc ptr @cuddBddVarMapRecur(ptr noundef nonnull %0, ptr noundef %1)
  %9 = load i32, ptr %6, align 8, !tbaa !26
  %10 = icmp eq i32 %9, 1
  br i1 %10, label %7, label %.loopexit, !llvm.loop !43

.loopexit:                                        ; preds = %7, %2
  %.0 = phi ptr [ null, %2 ], [ %8, %7 ]
  ret ptr %.0
}